; Function Attrs: mustprogress nounwind uwtable
define dso_local void @_ZN4i18n12phonenumbers23PhoneMetadataCollectionD2Ev(ptr nocapture noundef nonnull align 8 dereferenceable(48) %0) unnamed_addr #6 align 2 personality ptr @__gxx_personality_v0 {
  %2 = getelementptr inbounds i8, ptr %0, i64 8
  %3 = load ptr, ptr %2, align 8
  %4 = ptrtoint ptr %3 to i64
  %5 = and i64 %4, 1
  %.not.i = icmp eq i64 %5, 0
  br i1 %.not.i, label %_ZN6google8protobuf8internal16InternalMetadata6DeleteINSt7__cxx1112basic_stringIcSt11char_traitsIcESaIcEEEEEvv.exit, label %6

6:                                                ; preds = %1
  %7 = and i64 %4, -2
  %8 = inttoptr i64 %7 to ptr
  %9 = load ptr, ptr %8, align 8
  %10 = icmp eq ptr %9, null
  br i1 %10, label %11, label %_ZN6google8protobuf8internal16InternalMetadata6DeleteINSt7__cxx1112basic_stringIcSt11char_traitsIcESaIcEEEEEvv.exit

11:                                               ; preds = %6
  %12 = getelementptr inbounds i8, ptr %8, i64 8
  tail call void @_ZNSt7__cxx1112basic_stringIcSt11char_traitsIcESaIcEED1Ev(ptr noundef nonnull align 8 dereferenceable(32) %12) #21
  tail call void @_ZdlPv(ptr noundef nonnull %8) #23
  br label %_ZN6google8protobuf8internal16InternalMetadata6DeleteINSt7__cxx1112basic_stringIcSt11char_traitsIcESaIcEEEEEvv.exit

_ZN6google8protobuf8internal16InternalMetadata6DeleteINSt7__cxx1112basic_stringIcSt11char_traitsIcESaIcEEEEEvv.exit: ; preds = %11, %6, %1
  %13 = getelementptr inbounds i8, ptr %0, i64 16
  %14 = getelementptr inbounds i8, ptr %0, i64 32
  %15 = load ptr, ptr %14, align 8
  %.not.i.i = icmp ne ptr %15, null
  %16 = load ptr, ptr %13, align 8
  %17 = icmp eq ptr %16, null
  %or.cond.i.i = select i1 %.not.i.i, i1 %17, i1 false
  br i1 %or.cond.i.i, label %18, label %_ZN6google8protobuf16RepeatedPtrFieldIN4i18n12phonenumbers13PhoneMetadataEED2Ev.exit

18:                                               ; preds = %_ZN6google8protobuf8internal16InternalMetadata6DeleteINSt7__cxx1112basic_stringIcSt11char_traitsIcESaIcEEEEEvv.exit
  %19 = load i32, ptr %15, align 8
  %20 = getelementptr inbounds i8, ptr %15, i64 8
  %21 = icmp sgt i32 %19, 0
  br i1 %21, label %.lr.ph.preheader.i.i, label %._crit_edge.i.i

.lr.ph.preheader.i.i:                             ; preds = %18
  %wide.trip.count.i.i = zext nneg i32 %19 to i64
  br label %.lr.ph.i.i

.lr.ph.i.i:                                       ; preds = %_ZN6google8protobuf8internal18GenericTypeHandlerIN4i18n12phonenumbers13PhoneMetadataEE6DeleteEPS5_PNS0_5ArenaE.exit.i.i, %.lr.ph.preheader.i.i
  %indvars.iv.i.i = phi i64 [ 0, %.lr.ph.preheader.i.i ], [ %indvars.iv.next.i.i, %_ZN6google8protobuf8internal18GenericTypeHandlerIN4i18n12phonenumbers13PhoneMetadataEE6DeleteEPS5_PNS0_5ArenaE.exit.i.i ]
  %22 = getelementptr inbounds ptr, ptr %20, i64 %indvars.iv.i.i
  %23 = load ptr, ptr %22, align 8
  %24 = icmp eq ptr %23, null
  br i1 %24, label %_ZN6google8protobuf8internal18GenericTypeHandlerIN4i18n12phonenumbers13PhoneMetadataEE6DeleteEPS5_PNS0_5ArenaE.exit.i.i, label %25

25:                                               ; preds = %.lr.ph.i.i
  tail call void @_ZN4i18n12phonenumbers13PhoneMetadataD2Ev(ptr noundef nonnull align 8 dereferenceable(280) %23) #21
  tail call void @_ZdlPv(ptr noundef nonnull %23) #23
  br label %_ZN6google8protobuf8internal18GenericTypeHandlerIN4i18n12phonenumbers13PhoneMetadataEE6DeleteEPS5_PNS0_5ArenaE.exit.i.i

_ZN6google8protobuf8internal18GenericTypeHandlerIN4i18n12phonenumbers13PhoneMetadataEE6DeleteEPS5_PNS0_5ArenaE.exit.i.i: ; preds = %25, %.lr.ph.i.i
  %indvars.iv.next.i.i = add nuw nsw i64 %indvars.iv.i.i, 1
  %exitcond.not.i.i = icmp eq i64 %indvars.iv.next.i.i, %wide.trip.count.i.i
  br i1 %exitcond.not.i.i, label %._crit_edge.loopexit.i.i, label %.lr.ph.i.i, !llvm.loop !25

._crit_edge.loopexit.i.i:                         ; preds = %_ZN6google8protobuf8internal18GenericTypeHandlerIN4i18n12phonenumbers13PhoneMetadataEE6DeleteEPS5_PNS0_5ArenaE.exit.i.i
  %.pre.i.i = load ptr, ptr %14, align 8
  br label %._crit_edge.i.i

._crit_edge.i.i:                                  ; preds = %._crit_edge.loopexit.i.i, %18
  %26 = phi ptr [ %.pre.i.i, %._crit_edge.loopexit.i.i ], [ %15, %18 ]
  tail call void @_ZdlPv(ptr noundef %26) #21
  br label %_ZN6google8protobuf16RepeatedPtrFieldIN4i18n12phonenumbers13PhoneMetadataEED2Ev.exit

_ZN6google8protobuf16RepeatedPtrFieldIN4i18n12phonenumbers13PhoneMetadataEED2Ev.exit: ; preds = %_ZN6google8protobuf8internal16InternalMetadata6DeleteINSt7__cxx1112basic_stringIcSt11char_traitsIcESaIcEEEEEvv.exit, %._crit_edge.i.i
  store ptr null, ptr %14, align 8
  ret void
}